target datalayout = "e-m:e-p270:32:32-p271:32:32-p272:64:64-i64:64-i128:128-f80:128-n8:16:32:64-S128"
target triple = "x86_64-pc-linux-gnu"

%struct.mi_heap_s = type { ptr, ptr, i64, i32, i64, [2 x i64], %struct.mi_random_cxt_s, i64, i64, i64, ptr, i8, i8, [129 x ptr], [75 x %struct.mi_page_queue_s] }
%struct.mi_random_cxt_s = type { [16 x i32], [16 x i32], i32, i8 }
%struct.mi_page_queue_s = type { ptr, ptr, i64 }
%struct.mi_tld_s = type { i64, i8, ptr, ptr, %struct.mi_segments_tld_s, %struct.mi_stats_s }
%struct.mi_segments_tld_s = type { [36 x %struct.mi_span_queue_s], i64, i64, i64, i64, i64, ptr, ptr }
%struct.mi_span_queue_s = type { ptr, ptr, i64 }
%struct.mi_stats_s = type { %struct.mi_stat_count_s, %struct.mi_stat_count_s, %struct.mi_stat_count_s, %struct.mi_stat_count_s, %struct.mi_stat_count_s, %struct.mi_stat_count_s, %struct.mi_stat_count_s, %struct.mi_stat_count_s, %struct.mi_stat_count_s, %struct.mi_stat_count_s, %struct.mi_stat_count_s, %struct.mi_stat_count_s, %struct.mi_stat_count_s, %struct.mi_stat_count_s, %struct.mi_stat_count_s, %struct.mi_stat_counter_s, %struct.mi_stat_counter_s, %struct.mi_stat_counter_s, %struct.mi_stat_counter_s, %struct.mi_stat_counter_s, %struct.mi_stat_counter_s, %struct.mi_stat_counter_s, %struct.mi_stat_counter_s, %struct.mi_stat_counter_s, %struct.mi_stat_counter_s, %struct.mi_stat_counter_s, %struct.mi_stat_counter_s, %struct.mi_stat_counter_s, %struct.mi_stat_counter_s }
%struct.mi_stat_count_s = type { i64, i64, i64, i64 }
%struct.mi_stat_counter_s = type { i64, i64 }

@_mi_heap_empty = external hidden constant %struct.mi_heap_s, align 8

; Function Attrs: inlinehint nounwind uwtable
define internal void @_mi_memcpy(ptr noundef %0, ptr noundef %1, i64 noundef %2) #1 {
  %4 = alloca ptr, align 8
  %5 = alloca ptr, align 8
  %6 = alloca i64, align 8
  store ptr %0, ptr %4, align 8, !tbaa !38
  store ptr %1, ptr %5, align 8, !tbaa !38
  store i64 %2, ptr %6, align 8, !tbaa !35
  %7 = load ptr, ptr %4, align 8, !tbaa !38
  %8 = load ptr, ptr %5, align 8, !tbaa !38
  %9 = load i64, ptr %6, align 8, !tbaa !35
  call void @llvm.memcpy.p0.p0.i64(ptr align 1 %7, ptr align 1 %8, i64 %9, i1 false)
  ret void
}

; Function Attrs: nounwind uwtable
define hidden i64 @_mi_heap_random_next(ptr noundef %0) #0 {
  %2 = alloca ptr, align 8
  store ptr %0, ptr %2, align 8, !tbaa !3
  %3 = load ptr, ptr %2, align 8, !tbaa !3
  %4 = getelementptr inbounds nuw %struct.mi_heap_s, ptr %3, i32 0, i32 6
  %5 = call i64 @_mi_random_next(ptr noundef %4) #9
  ret i64 %5
}

; Function Attrs: inlinehint nounwind uwtable
define internal void @_mi_memcpy_aligned(ptr noundef %0, ptr noundef %1, i64 noundef %2) #1 {
  %4 = alloca ptr, align 8
  %5 = alloca ptr, align 8
  %6 = alloca i64, align 8
  %7 = alloca ptr, align 8
  %8 = alloca ptr, align 8
  store ptr %0, ptr %4, align 8, !tbaa !38
  store ptr %1, ptr %5, align 8, !tbaa !38
  store i64 %2, ptr %6, align 8, !tbaa !35
  call void @llvm.lifetime.start.p0(i64 8, ptr %7) #10
  %9 = load ptr, ptr %4, align 8, !tbaa !38
  call void @llvm.assume(i1 true) [ "align"(ptr %9, i64 8) ]
  store ptr %9, ptr %7, align 8, !tbaa !38
  call void @llvm.lifetime.start.p0(i64 8, ptr %8) #10
  %10 = load ptr, ptr %5, align 8, !tbaa !38
  call void @llvm.assume(i1 true) [ "align"(ptr %10, i64 8) ]
  store ptr %10, ptr %8, align 8, !tbaa !38
  %11 = load ptr, ptr %7, align 8, !tbaa !38
  %12 = load ptr, ptr %8, align 8, !tbaa !38
  %13 = load i64, ptr %6, align 8, !tbaa !35
  call void @_mi_memcpy(ptr noundef %11, ptr noundef %12, i64 noundef %13) #9
  call void @llvm.lifetime.end.p0(i64 8, ptr %8) #10
  call void @llvm.lifetime.end.p0(i64 8, ptr %7) #10
  ret void
}

; Function Attrs: nounwind uwtable
define hidden void @_mi_heap_init(ptr noundef %0, ptr noundef %1, i32 noundef %2, i1 noundef zeroext %3, i8 noundef zeroext %4) #0 {
  %6 = alloca ptr, align 8
  %7 = alloca ptr, align 8
  %8 = alloca i32, align 4
  %9 = alloca i8, align 1
  %10 = alloca i8, align 1
  store ptr %0, ptr %6, align 8, !tbaa !3
  store ptr %1, ptr %7, align 8, !tbaa !30
  store i32 %2, ptr %8, align 4, !tbaa !8
  %11 = zext i1 %3 to i8
  store i8 %11, ptr %9, align 1, !tbaa !10
  store i8 %4, ptr %10, align 1, !tbaa !31
  %12 = load ptr, ptr %6, align 8, !tbaa !3
  call void @_mi_memcpy_aligned(ptr noundef %12, ptr noundef @_mi_heap_empty, i64 noundef 3064) #9
  %13 = load ptr, ptr %7, align 8, !tbaa !30
  %14 = load ptr, ptr %6, align 8, !tbaa !3
  %15 = getelementptr inbounds nuw %struct.mi_heap_s, ptr %14, i32 0, i32 0
  store ptr %13, ptr %15, align 8, !tbaa !20
  %16 = call i64 @_mi_thread_id() #9
  %17 = load ptr, ptr %6, align 8, !tbaa !3
  %18 = getelementptr inbounds nuw %struct.mi_heap_s, ptr %17, i32 0, i32 2
  store i64 %16, ptr %18, align 8, !tbaa !14
  %19 = load i32, ptr %8, align 4, !tbaa !8
  %20 = load ptr, ptr %6, align 8, !tbaa !3
  %21 = getelementptr inbounds nuw %struct.mi_heap_s, ptr %20, i32 0, i32 3
  store i32 %19, ptr %21, align 8, !tbaa !32
  %22 = load i8, ptr %9, align 1, !tbaa !10, !range !12, !noundef !13
  %23 = trunc i8 %22 to i1
  %24 = load ptr, ptr %6, align 8, !tbaa !3
  %25 = getelementptr inbounds nuw %struct.mi_heap_s, ptr %24, i32 0, i32 11
  %26 = zext i1 %23 to i8
  store i8 %26, ptr %25, align 8, !tbaa !19
  %27 = load i8, ptr %10, align 1, !tbaa !31
  %28 = load ptr, ptr %6, align 8, !tbaa !3
  %29 = getelementptr inbounds nuw %struct.mi_heap_s, ptr %28, i32 0, i32 12
  store i8 %27, ptr %29, align 1, !tbaa !33
  %30 = load ptr, ptr %6, align 8, !tbaa !3
  %31 = load ptr, ptr %7, align 8, !tbaa !30
  %32 = getelementptr inbounds nuw %struct.mi_tld_s, ptr %31, i32 0, i32 2
  %33 = load ptr, ptr %32, align 8, !tbaa !21
  %34 = icmp eq ptr %30, %33
  br i1 %34, label %35, label %38

35:                                               ; preds = %5
  %36 = load ptr, ptr %6, align 8, !tbaa !3
  %37 = getelementptr inbounds nuw %struct.mi_heap_s, ptr %36, i32 0, i32 6
  call void @_mi_random_init(ptr noundef %37) #9
  br label %45

38:                                               ; preds = %5
  %39 = load ptr, ptr %7, align 8, !tbaa !30
  %40 = getelementptr inbounds nuw %struct.mi_tld_s, ptr %39, i32 0, i32 2
  %41 = load ptr, ptr %40, align 8, !tbaa !21
  %42 = getelementptr inbounds nuw %struct.mi_heap_s, ptr %41, i32 0, i32 6
  %43 = load ptr, ptr %6, align 8, !tbaa !3
  %44 = getelementptr inbounds nuw %struct.mi_heap_s, ptr %43, i32 0, i32 6
  call void @_mi_random_split(ptr noundef %42, ptr noundef %44) #9
  br label %45

45:                                               ; preds = %38, %35
  %46 = load ptr, ptr %6, align 8, !tbaa !3
  %47 = call i64 @_mi_heap_random_next(ptr noundef %46) #9
  %48 = or i64 %47, 1
  %49 = load ptr, ptr %6, align 8, !tbaa !3
  %50 = getelementptr inbounds nuw %struct.mi_heap_s, ptr %49, i32 0, i32 4
  store i64 %48, ptr %50, align 8, !tbaa !34
  %51 = load ptr, ptr %6, align 8, !tbaa !3
  %52 = call i64 @_mi_heap_random_next(ptr noundef %51) #9
  %53 = load ptr, ptr %6, align 8, !tbaa !3
  %54 = getelementptr inbounds nuw %struct.mi_heap_s, ptr %53, i32 0, i32 5
  %55 = getelementptr inbounds [2 x i64], ptr %54, i64 0, i64 0
  store i64 %52, ptr %55, align 8, !tbaa !35
  %56 = load ptr, ptr %6, align 8, !tbaa !3
  %57 = call i64 @_mi_heap_random_next(ptr noundef %56) #9
  %58 = load ptr, ptr %6, align 8, !tbaa !3
  %59 = getelementptr inbounds nuw %struct.mi_heap_s, ptr %58, i32 0, i32 5
  %60 = getelementptr inbounds [2 x i64], ptr %59, i64 0, i64 1
  store i64 %57, ptr %60, align 8, !tbaa !35
  %61 = load ptr, ptr %6, align 8, !tbaa !3
  call void @_mi_heap_guarded_init(ptr noundef %61) #9
  %62 = load ptr, ptr %6, align 8, !tbaa !3
  %63 = getelementptr inbounds nuw %struct.mi_heap_s, ptr %62, i32 0, i32 0
  %64 = load ptr, ptr %63, align 8, !tbaa !20
  %65 = getelementptr inbounds nuw %struct.mi_tld_s, ptr %64, i32 0, i32 3
  %66 = load ptr, ptr %65, align 8, !tbaa !36
  %67 = load ptr, ptr %6, align 8, !tbaa !3
  %68 = getelementptr inbounds nuw %struct.mi_heap_s, ptr %67, i32 0, i32 10
  store ptr %66, ptr %68, align 8, !tbaa !37
  %69 = load ptr, ptr %6, align 8, !tbaa !3
  %70 = load ptr, ptr %6, align 8, !tbaa !3
  %71 = getelementptr inbounds nuw %struct.mi_heap_s, ptr %70, i32 0, i32 0
  %72 = load ptr, ptr %71, align 8, !tbaa !20
  %73 = getelementptr inbounds nuw %struct.mi_tld_s, ptr %72, i32 0, i32 3
  store ptr %69, ptr %73, align 8, !tbaa !36
  ret void
}