; Function Attrs: nounwind uwtable
define hidden void @_mi_heap_init(ptr noundef %0, ptr noundef %1, i32 noundef %2, i1 noundef zeroext %3, i8 noundef zeroext %4) local_unnamed_addr #0 {
  %6 = zext i1 %3 to i8
  call void @llvm.assume(i1 true) [ "align"(ptr %0, i64 8) ]
  call void @llvm.assume(i1 true) [ "align"(ptr @_mi_heap_empty, i64 8) ]
  tail call void @llvm.memcpy.p0.p0.i64(ptr noundef nonnull align 8 dereferenceable(3064) %0, ptr noundef nonnull readonly align 8 dereferenceable(3064) @_mi_heap_empty, i64 range(i64 1800, 3065) 3064, i1 false)
  store ptr %1, ptr %0, align 8, !tbaa !14
  %7 = tail call i64 @_mi_thread_id() #11
  %8 = getelementptr inbounds nuw i8, ptr %0, i64 16
  store i64 %7, ptr %8, align 8, !tbaa !3
  %9 = getelementptr inbounds nuw i8, ptr %0, i64 24
  store i32 %2, ptr %9, align 8, !tbaa !41
  %10 = getelementptr inbounds nuw i8, ptr %0, i64 224
  store i8 %6, ptr %10, align 8, !tbaa !24
  %11 = getelementptr inbounds nuw i8, ptr %0, i64 225
  store i8 %4, ptr %11, align 1, !tbaa !42
  %12 = getelementptr inbounds nuw i8, ptr %1, i64 16
  %13 = load ptr, ptr %12, align 8, !tbaa !15
  %14 = icmp eq ptr %0, %13
  br i1 %14, label %15, label %17

15:                                               ; preds = %5
  %16 = getelementptr inbounds nuw i8, ptr %0, i64 56
  tail call void @_mi_random_init(ptr noundef nonnull %16) #11
  br label %20

17:                                               ; preds = %5
  %18 = getelementptr inbounds nuw i8, ptr %13, i64 56
  %19 = getelementptr inbounds nuw i8, ptr %0, i64 56
  tail call void @_mi_random_split(ptr noundef nonnull %18, ptr noundef nonnull %19) #11
  br label %20

20:                                               ; preds = %17, %15
  %21 = getelementptr inbounds nuw i8, ptr %0, i64 56
  %22 = tail call i64 @_mi_random_next(ptr noundef nonnull %21) #11
  %23 = or i64 %22, 1
  %24 = getelementptr inbounds nuw i8, ptr %0, i64 32
  store i64 %23, ptr %24, align 8, !tbaa !43
  %25 = tail call i64 @_mi_random_next(ptr noundef nonnull %21) #11
  %26 = getelementptr inbounds nuw i8, ptr %0, i64 40
  store i64 %25, ptr %26, align 8, !tbaa !44
  %27 = tail call i64 @_mi_random_next(ptr noundef nonnull %21) #11
  %28 = getelementptr inbounds nuw i8, ptr %0, i64 48
  store i64 %27, ptr %28, align 8, !tbaa !44
  tail call void @_mi_heap_guarded_init(ptr noundef nonnull %0) #11
  %29 = load ptr, ptr %0, align 8, !tbaa !14
  %30 = getelementptr inbounds nuw i8, ptr %29, i64 24
  %31 = load ptr, ptr %30, align 8, !tbaa !45
  %32 = getelementptr inbounds nuw i8, ptr %0, i64 216
  store ptr %31, ptr %32, align 8, !tbaa !46
  store ptr %0, ptr %30, align 8, !tbaa !45
  ret void
}